target datalayout = "e-m:e-p270:32:32-p271:32:32-p272:64:64-i64:64-i128:128-f80:128-n8:16:32:64-S128"
target triple = "x86_64-pc-linux-gnu"

%struct.cli_matcher = type { i32, ptr, ptr, ptr, ptr, i32, i32, i32, i32, i32, %struct.cli_hash_patt, %struct.cli_hash_wild, i32, i32, i32, i32, i32, ptr, ptr, ptr, ptr, ptr, ptr, i32, i32, i8, i8, ptr, i16, i8, i32, ptr, i32, i32, i32, ptr, ptr, i32, ptr, i64, i64, ptr }
%struct.cli_hash_patt = type { [3 x %struct.cli_htu32] }
%struct.cli_htu32 = type { ptr, i64, i64, i64 }
%struct.cli_hash_wild = type { [3 x %struct.cli_sz_hash] }
%struct.cli_sz_hash = type { ptr, ptr, i32 }
%struct.cli_ac_node = type { ptr, ptr, ptr }

@.str.64 = private unnamed_addr constant [68 x i8] c"cli_ac_addpatt: Can't allocate memory for cleanup storage of trans\0A\00", align 1
@.str.65 = private unnamed_addr constant [51 x i8] c"cli_ac_addpatt: Can't allocate memory for AC node\0A\00", align 1
@.str.66 = private unnamed_addr constant [54 x i8] c"cli_ac_addpatt: Can't allocate memory for new->trans\0A\00", align 1
@.str.67 = private unnamed_addr constant [44 x i8] c"cli_ac_addpatt: Can't realloc ac_nodetable\0A\00", align 1

; Function Attrs: nounwind uwtable
define internal zeroext i1 @store_trans_node(ptr noundef %0, ptr noundef %1) #0 {
  %3 = alloca i1, align 1
  %4 = alloca ptr, align 8
  %5 = alloca ptr, align 8
  %6 = alloca i8, align 1
  %7 = alloca i64, align 8
  %8 = alloca ptr, align 8
  %9 = alloca i32, align 4
  store ptr %0, ptr %4, align 8, !tbaa !3
  store ptr %1, ptr %5, align 8, !tbaa !83
  call void @llvm.lifetime.start.p0(i64 1, ptr %6) #16
  store i8 0, ptr %6, align 1, !tbaa !214
  %10 = load ptr, ptr %4, align 8, !tbaa !3
  %11 = getelementptr inbounds nuw %struct.cli_matcher, ptr %10, i32 0, i32 39
  %12 = load i64, ptr %11, align 8, !tbaa !81
  %13 = add i64 %12, 1
  %14 = load ptr, ptr %4, align 8, !tbaa !3
  %15 = getelementptr inbounds nuw %struct.cli_matcher, ptr %14, i32 0, i32 40
  %16 = load i64, ptr %15, align 8, !tbaa !84
  %17 = icmp ugt i64 %13, %16
  br i1 %17, label %18, label %45

18:                                               ; preds = %2
  call void @llvm.lifetime.start.p0(i64 8, ptr %7) #16
  %19 = load ptr, ptr %4, align 8, !tbaa !3
  %20 = getelementptr inbounds nuw %struct.cli_matcher, ptr %19, i32 0, i32 40
  %21 = load i64, ptr %20, align 8, !tbaa !84
  %22 = add i64 %21, 1024
  store i64 %22, ptr %7, align 8, !tbaa !87
  call void @llvm.lifetime.start.p0(i64 8, ptr %8) #16
  %23 = load ptr, ptr %4, align 8, !tbaa !3
  %24 = getelementptr inbounds nuw %struct.cli_matcher, ptr %23, i32 0, i32 41
  %25 = load ptr, ptr %24, align 8, !tbaa !37
  %26 = load ptr, ptr %4, align 8, !tbaa !3
  %27 = getelementptr inbounds nuw %struct.cli_matcher, ptr %26, i32 0, i32 38
  %28 = load ptr, ptr %27, align 8, !tbaa !82
  %29 = load i64, ptr %7, align 8, !tbaa !87
  %30 = mul i64 %29, 8
  %31 = call ptr @mpool_realloc(ptr noundef %25, ptr noundef %28, i64 noundef %30)
  store ptr %31, ptr %8, align 8, !tbaa !215
  %32 = load ptr, ptr %8, align 8, !tbaa !215
  %33 = icmp eq ptr null, %32
  br i1 %33, label %34, label %35

34:                                               ; preds = %18
  call void (ptr, ...) @cli_errmsg(ptr noundef @.str.64)
  store i32 2, ptr %9, align 4
  br label %42

35:                                               ; preds = %18
  %36 = load i64, ptr %7, align 8, !tbaa !87
  %37 = load ptr, ptr %4, align 8, !tbaa !3
  %38 = getelementptr inbounds nuw %struct.cli_matcher, ptr %37, i32 0, i32 40
  store i64 %36, ptr %38, align 8, !tbaa !84
  %39 = load ptr, ptr %8, align 8, !tbaa !215
  %40 = load ptr, ptr %4, align 8, !tbaa !3
  %41 = getelementptr inbounds nuw %struct.cli_matcher, ptr %40, i32 0, i32 38
  store ptr %39, ptr %41, align 8, !tbaa !82
  store i32 0, ptr %9, align 4
  br label %42

42:                                               ; preds = %34, %35
  call void @llvm.lifetime.end.p0(i64 8, ptr %8) #16
  call void @llvm.lifetime.end.p0(i64 8, ptr %7) #16
  %43 = load i32, ptr %9, align 4
  switch i32 %43, label %58 [
    i32 0, label %44
    i32 2, label %55
  ]

44:                                               ; preds = %42
  br label %45

45:                                               ; preds = %44, %2
  %46 = load ptr, ptr %5, align 8, !tbaa !83
  %47 = load ptr, ptr %4, align 8, !tbaa !3
  %48 = getelementptr inbounds nuw %struct.cli_matcher, ptr %47, i32 0, i32 38
  %49 = load ptr, ptr %48, align 8, !tbaa !82
  %50 = load ptr, ptr %4, align 8, !tbaa !3
  %51 = getelementptr inbounds nuw %struct.cli_matcher, ptr %50, i32 0, i32 39
  %52 = load i64, ptr %51, align 8, !tbaa !81
  %53 = add i64 %52, 1
  store i64 %53, ptr %51, align 8, !tbaa !81
  %54 = getelementptr inbounds nuw ptr, ptr %49, i64 %52
  store ptr %46, ptr %54, align 8, !tbaa !83
  store i8 1, ptr %6, align 1, !tbaa !214
  br label %55

55:                                               ; preds = %45, %42
  %56 = load i8, ptr %6, align 1, !tbaa !214, !range !216, !noundef !217
  %57 = trunc i8 %56 to i1
  store i1 %57, ptr %3, align 1
  store i32 1, ptr %9, align 4
  br label %58

58:                                               ; preds = %55, %42
  call void @llvm.lifetime.end.p0(i64 1, ptr %6) #16
  %59 = load i1, ptr %3, align 1
  ret i1 %59
}

; Function Attrs: inlinehint nounwind uwtable
define internal ptr @add_new_node(ptr noundef %0, i16 noundef zeroext %1, i16 noundef zeroext %2) #12 {
  %4 = alloca ptr, align 8
  %5 = alloca ptr, align 8
  %6 = alloca i16, align 2
  %7 = alloca i16, align 2
  %8 = alloca ptr, align 8
  %9 = alloca ptr, align 8
  %10 = alloca i32, align 4
  store ptr %0, ptr %5, align 8, !tbaa !3
  store i16 %1, ptr %6, align 2, !tbaa !30
  store i16 %2, ptr %7, align 2, !tbaa !30
  call void @llvm.lifetime.start.p0(i64 8, ptr %8) #16
  call void @llvm.lifetime.start.p0(i64 8, ptr %9) #16
  %11 = load ptr, ptr %5, align 8, !tbaa !3
  %12 = getelementptr inbounds nuw %struct.cli_matcher, ptr %11, i32 0, i32 41
  %13 = load ptr, ptr %12, align 8, !tbaa !37
  %14 = call ptr @mpool_calloc(ptr noundef %13, i64 noundef 1, i64 noundef 24)
  store ptr %14, ptr %8, align 8, !tbaa !42
  %15 = load ptr, ptr %8, align 8, !tbaa !42
  %16 = icmp ne ptr %15, null
  br i1 %16, label %18, label %17

17:                                               ; preds = %3
  call void (ptr, ...) @cli_errmsg(ptr noundef @.str.65)
  store ptr null, ptr %4, align 8
  store i32 1, ptr %10, align 4
  br label %108

18:                                               ; preds = %3
  %19 = load i16, ptr %6, align 2, !tbaa !30
  %20 = zext i16 %19 to i32
  %21 = load i16, ptr %7, align 2, !tbaa !30
  %22 = zext i16 %21 to i32
  %23 = sub nsw i32 %22, 1
  %24 = icmp ne i32 %20, %23
  br i1 %24, label %25, label %53

25:                                               ; preds = %18
  %26 = load ptr, ptr %5, align 8, !tbaa !3
  %27 = getelementptr inbounds nuw %struct.cli_matcher, ptr %26, i32 0, i32 41
  %28 = load ptr, ptr %27, align 8, !tbaa !37
  %29 = call ptr @mpool_calloc(ptr noundef %28, i64 noundef 256, i64 noundef 8)
  %30 = load ptr, ptr %8, align 8, !tbaa !42
  %31 = getelementptr inbounds nuw %struct.cli_ac_node, ptr %30, i32 0, i32 1
  store ptr %29, ptr %31, align 8, !tbaa !43
  %32 = load ptr, ptr %8, align 8, !tbaa !42
  %33 = getelementptr inbounds nuw %struct.cli_ac_node, ptr %32, i32 0, i32 1
  %34 = load ptr, ptr %33, align 8, !tbaa !43
  %35 = icmp ne ptr %34, null
  br i1 %35, label %41, label %36

36:                                               ; preds = %25
  call void (ptr, ...) @cli_errmsg(ptr noundef @.str.66)
  %37 = load ptr, ptr %5, align 8, !tbaa !3
  %38 = getelementptr inbounds nuw %struct.cli_matcher, ptr %37, i32 0, i32 41
  %39 = load ptr, ptr %38, align 8, !tbaa !37
  %40 = load ptr, ptr %8, align 8, !tbaa !42
  call void @mpool_free(ptr noundef %39, ptr noundef %40)
  store ptr null, ptr %4, align 8
  store i32 1, ptr %10, align 4
  br label %108

41:                                               ; preds = %25
  %42 = load ptr, ptr %5, align 8, !tbaa !3
  %43 = load ptr, ptr %8, align 8, !tbaa !42
  %44 = getelementptr inbounds nuw %struct.cli_ac_node, ptr %43, i32 0, i32 1
  %45 = load ptr, ptr %44, align 8, !tbaa !43
  %46 = call zeroext i1 @store_trans_node(ptr noundef %42, ptr noundef %45)
  br i1 %46, label %52, label %47

47:                                               ; preds = %41
  %48 = load ptr, ptr %5, align 8, !tbaa !3
  %49 = getelementptr inbounds nuw %struct.cli_matcher, ptr %48, i32 0, i32 41
  %50 = load ptr, ptr %49, align 8, !tbaa !37
  %51 = load ptr, ptr %8, align 8, !tbaa !42
  call void @mpool_free(ptr noundef %50, ptr noundef %51)
  store ptr null, ptr %4, align 8
  store i32 1, ptr %10, align 4
  br label %108

52:                                               ; preds = %41
  br label %53

53:                                               ; preds = %52, %18
  %54 = load ptr, ptr %5, align 8, !tbaa !3
  %55 = getelementptr inbounds nuw %struct.cli_matcher, ptr %54, i32 0, i32 13
  %56 = load i32, ptr %55, align 4, !tbaa !66
  %57 = add i32 %56, 1
  store i32 %57, ptr %55, align 4, !tbaa !66
  %58 = load ptr, ptr %5, align 8, !tbaa !3
  %59 = getelementptr inbounds nuw %struct.cli_matcher, ptr %58, i32 0, i32 41
  %60 = load ptr, ptr %59, align 8, !tbaa !37
  %61 = load ptr, ptr %5, align 8, !tbaa !3
  %62 = getelementptr inbounds nuw %struct.cli_matcher, ptr %61, i32 0, i32 19
  %63 = load ptr, ptr %62, align 8, !tbaa !67
  %64 = load ptr, ptr %5, align 8, !tbaa !3
  %65 = getelementptr inbounds nuw %struct.cli_matcher, ptr %64, i32 0, i32 13
  %66 = load i32, ptr %65, align 4, !tbaa !66
  %67 = zext i32 %66 to i64
  %68 = mul i64 %67, 8
  %69 = call ptr @mpool_realloc(ptr noundef %60, ptr noundef %63, i64 noundef %68)
  store ptr %69, ptr %9, align 8, !tbaa !83
  %70 = load ptr, ptr %9, align 8, !tbaa !83
  %71 = icmp ne ptr %70, null
  br i1 %71, label %93, label %72

72:                                               ; preds = %53
  %73 = load ptr, ptr %5, align 8, !tbaa !3
  %74 = getelementptr inbounds nuw %struct.cli_matcher, ptr %73, i32 0, i32 13
  %75 = load i32, ptr %74, align 4, !tbaa !66
  %76 = add i32 %75, -1
  store i32 %76, ptr %74, align 4, !tbaa !66
  call void (ptr, ...) @cli_errmsg(ptr noundef @.str.67)
  %77 = load ptr, ptr %8, align 8, !tbaa !42
  %78 = getelementptr inbounds nuw %struct.cli_ac_node, ptr %77, i32 0, i32 1
  %79 = load ptr, ptr %78, align 8, !tbaa !43
  %80 = icmp ne ptr %79, null
  br i1 %80, label %81, label %88

81:                                               ; preds = %72
  %82 = load ptr, ptr %5, align 8, !tbaa !3
  %83 = getelementptr inbounds nuw %struct.cli_matcher, ptr %82, i32 0, i32 41
  %84 = load ptr, ptr %83, align 8, !tbaa !37
  %85 = load ptr, ptr %8, align 8, !tbaa !42
  %86 = getelementptr inbounds nuw %struct.cli_ac_node, ptr %85, i32 0, i32 1
  %87 = load ptr, ptr %86, align 8, !tbaa !43
  call void @mpool_free(ptr noundef %84, ptr noundef %87)
  br label %88

88:                                               ; preds = %81, %72
  %89 = load ptr, ptr %5, align 8, !tbaa !3
  %90 = getelementptr inbounds nuw %struct.cli_matcher, ptr %89, i32 0, i32 41
  %91 = load ptr, ptr %90, align 8, !tbaa !37
  %92 = load ptr, ptr %8, align 8, !tbaa !42
  call void @mpool_free(ptr noundef %91, ptr noundef %92)
  store ptr null, ptr %4, align 8
  store i32 1, ptr %10, align 4
  br label %108

93:                                               ; preds = %53
  %94 = load ptr, ptr %9, align 8, !tbaa !83
  %95 = load ptr, ptr %5, align 8, !tbaa !3
  %96 = getelementptr inbounds nuw %struct.cli_matcher, ptr %95, i32 0, i32 19
  store ptr %94, ptr %96, align 8, !tbaa !67
  %97 = load ptr, ptr %8, align 8, !tbaa !42
  %98 = load ptr, ptr %5, align 8, !tbaa !3
  %99 = getelementptr inbounds nuw %struct.cli_matcher, ptr %98, i32 0, i32 19
  %100 = load ptr, ptr %99, align 8, !tbaa !67
  %101 = load ptr, ptr %5, align 8, !tbaa !3
  %102 = getelementptr inbounds nuw %struct.cli_matcher, ptr %101, i32 0, i32 13
  %103 = load i32, ptr %102, align 4, !tbaa !66
  %104 = sub i32 %103, 1
  %105 = zext i32 %104 to i64
  %106 = getelementptr inbounds nuw ptr, ptr %100, i64 %105
  store ptr %97, ptr %106, align 8, !tbaa !42
  %107 = load ptr, ptr %8, align 8, !tbaa !42
  store ptr %107, ptr %4, align 8
  store i32 1, ptr %10, align 4
  br label %108

108:                                              ; preds = %93, %88, %47, %36, %17
  call void @llvm.lifetime.end.p0(i64 8, ptr %9) #16
  call void @llvm.lifetime.end.p0(i64 8, ptr %8) #16
  %109 = load ptr, ptr %4, align 8
  ret ptr %109
}