; Function Attrs: inlinehint nounwind uwtable
define internal fastcc ptr @add_new_node(ptr noundef captures(none) %0, i16 noundef zeroext %1, i16 noundef zeroext %2) unnamed_addr #13 {
  %4 = getelementptr inbounds nuw i8, ptr %0, i64 408
  %5 = load ptr, ptr %4, align 8, !tbaa !33
  %6 = tail call ptr @mpool_calloc(ptr noundef %5, i64 noundef 1, i64 noundef 24) #19
  %.not = icmp eq ptr %6, null
  br i1 %.not, label %7, label %8

7:                                                ; preds = %3
  tail call void (ptr, ...) @cli_errmsg(ptr noundef nonnull @.str.65) #19
  br label %62

8:                                                ; preds = %3
  %9 = zext i16 %1 to i32
  %10 = zext i16 %2 to i32
  %11 = add nsw i32 %10, -1
  %.not34 = icmp eq i32 %11, %9
  br i1 %.not34, label %38, label %12

12:                                               ; preds = %8
  %13 = load ptr, ptr %4, align 8, !tbaa !33
  %14 = tail call ptr @mpool_calloc(ptr noundef %13, i64 noundef 256, i64 noundef 8) #19
  %15 = getelementptr inbounds nuw i8, ptr %6, i64 8
  store ptr %14, ptr %15, align 8, !tbaa !46
  %.not35 = icmp eq ptr %14, null
  br i1 %.not35, label %16, label %18

16:                                               ; preds = %12
  tail call void (ptr, ...) @cli_errmsg(ptr noundef nonnull @.str.66) #19
  %17 = load ptr, ptr %4, align 8, !tbaa !33
  tail call void @mpool_free(ptr noundef %17, ptr noundef nonnull %6) #19
  br label %62

18:                                               ; preds = %12
  %19 = getelementptr inbounds nuw i8, ptr %0, i64 392
  %20 = load i64, ptr %19, align 8, !tbaa !48
  %21 = add i64 %20, 1
  %22 = getelementptr inbounds nuw i8, ptr %0, i64 400
  %23 = load i64, ptr %22, align 8, !tbaa !49
  %24 = icmp ugt i64 %21, %23
  br i1 %24, label %25, label %._crit_edge.i

._crit_edge.i:                                    ; preds = %18
  %.phi.trans.insert.i = getelementptr inbounds nuw i8, ptr %0, i64 384
  %.pre.i = load ptr, ptr %.phi.trans.insert.i, align 8, !tbaa !50
  br label %store_trans_node.exit.thread

25:                                               ; preds = %18
  %26 = add i64 %23, 1024
  %27 = load ptr, ptr %4, align 8, !tbaa !33
  %28 = getelementptr inbounds nuw i8, ptr %0, i64 384
  %29 = load ptr, ptr %28, align 8, !tbaa !50
  %30 = shl i64 %26, 3
  %31 = tail call ptr @mpool_realloc(ptr noundef %27, ptr noundef %29, i64 noundef %30) #19
  %32 = icmp eq ptr %31, null
  br i1 %32, label %36, label %.thread.i

.thread.i:                                        ; preds = %25
  store i64 %26, ptr %22, align 8, !tbaa !49
  store ptr %31, ptr %28, align 8, !tbaa !50
  %.pre23.i = load i64, ptr %19, align 8, !tbaa !48
  %.pre24.i = add i64 %.pre23.i, 1
  br label %store_trans_node.exit.thread

store_trans_node.exit.thread:                     ; preds = %._crit_edge.i, %.thread.i
  %.pre-phi.i = phi i64 [ %21, %._crit_edge.i ], [ %.pre24.i, %.thread.i ]
  %33 = phi i64 [ %20, %._crit_edge.i ], [ %.pre23.i, %.thread.i ]
  %34 = phi ptr [ %.pre.i, %._crit_edge.i ], [ %31, %.thread.i ]
  store i64 %.pre-phi.i, ptr %19, align 8, !tbaa !48
  %35 = getelementptr inbounds nuw ptr, ptr %34, i64 %33
  store ptr %14, ptr %35, align 8, !tbaa !51
  br label %38

36:                                               ; preds = %25
  tail call void (ptr, ...) @cli_errmsg(ptr noundef nonnull @.str.64) #19
  %37 = load ptr, ptr %4, align 8, !tbaa !33
  tail call void @mpool_free(ptr noundef %37, ptr noundef nonnull %6) #19
  br label %62

38:                                               ; preds = %store_trans_node.exit.thread, %8
  %39 = getelementptr inbounds nuw i8, ptr %0, i64 236
  %40 = load i32, ptr %39, align 4, !tbaa !72
  %41 = add i32 %40, 1
  store i32 %41, ptr %39, align 4, !tbaa !72
  %42 = load ptr, ptr %4, align 8, !tbaa !33
  %43 = getelementptr inbounds nuw i8, ptr %0, i64 272
  %44 = load ptr, ptr %43, align 8, !tbaa !73
  %45 = zext i32 %41 to i64
  %46 = shl nuw nsw i64 %45, 3
  %47 = tail call ptr @mpool_realloc(ptr noundef %42, ptr noundef %44, i64 noundef %46) #19
  %.not36 = icmp eq ptr %47, null
  br i1 %.not36, label %48, label %57

48:                                               ; preds = %38
  %49 = load i32, ptr %39, align 4, !tbaa !72
  %50 = add i32 %49, -1
  store i32 %50, ptr %39, align 4, !tbaa !72
  tail call void (ptr, ...) @cli_errmsg(ptr noundef nonnull @.str.67) #19
  %51 = getelementptr inbounds nuw i8, ptr %6, i64 8
  %52 = load ptr, ptr %51, align 8, !tbaa !46
  %.not37 = icmp eq ptr %52, null
  br i1 %.not37, label %55, label %53

53:                                               ; preds = %48
  %54 = load ptr, ptr %4, align 8, !tbaa !33
  tail call void @mpool_free(ptr noundef %54, ptr noundef nonnull %52) #19
  br label %55

55:                                               ; preds = %53, %48
  %56 = load ptr, ptr %4, align 8, !tbaa !33
  tail call void @mpool_free(ptr noundef %56, ptr noundef nonnull %6) #19
  br label %62

57:                                               ; preds = %38
  store ptr %47, ptr %43, align 8, !tbaa !73
  %58 = load i32, ptr %39, align 4, !tbaa !72
  %59 = add i32 %58, -1
  %60 = zext i32 %59 to i64
  %61 = getelementptr inbounds nuw ptr, ptr %47, i64 %60
  store ptr %6, ptr %61, align 8, !tbaa !56
  br label %62

62:                                               ; preds = %57, %55, %36, %16, %7
  %.0 = phi ptr [ %6, %57 ], [ null, %55 ], [ null, %36 ], [ null, %16 ], [ null, %7 ]
  ret ptr %.0
}